; Function Attrs: mustprogress uwtable
define void @_ZN3nix7getLineESt17basic_string_viewIcSt11char_traitsIcEE(ptr dead_on_unwind noalias nocapture writable writeonly sret(%"struct.std::pair.45") align 8 %0, i64 %1, ptr %2) local_unnamed_addr #4 {
  %.not = icmp eq i64 %1, 0
  br i1 %.not, label %_ZNKSt17basic_string_viewIcSt11char_traitsIcEE4findEcm.exit.thread, label %_ZNSt11char_traitsIcE4findEPKcmRS1_.exit.i

_ZNSt11char_traitsIcE4findEPKcmRS1_.exit.i:       ; preds = %3
  %4 = tail call ptr @memchr(ptr noundef %2, i32 noundef 10, i64 noundef %1) #25
  %.not.i = icmp eq ptr %4, null
  br i1 %.not.i, label %_ZNKSt17basic_string_viewIcSt11char_traitsIcEE4findEcm.exit.thread, label %_ZNKSt17basic_string_viewIcSt11char_traitsIcEE4findEcm.exit

_ZNKSt17basic_string_viewIcSt11char_traitsIcEE4findEcm.exit: ; preds = %_ZNSt11char_traitsIcE4findEPKcmRS1_.exit.i
  %5 = ptrtoint ptr %4 to i64
  %6 = ptrtoint ptr %2 to i64
  %7 = sub i64 %5, %6
  %8 = icmp eq i64 %7, -1
  br i1 %8, label %_ZNKSt17basic_string_viewIcSt11char_traitsIcEE4findEcm.exit.thread, label %9

9:                                                ; preds = %_ZNKSt17basic_string_viewIcSt11char_traitsIcEE4findEcm.exit
  %.sroa.speculated.i = tail call i64 @llvm.umin.i64(i64 %1, i64 %7)
  %10 = icmp eq ptr %4, %2
  br i1 %10, label %17, label %11

11:                                               ; preds = %9
  %12 = add i64 %.sroa.speculated.i, -1
  %13 = getelementptr inbounds i8, ptr %2, i64 %12
  %14 = load i8, ptr %13, align 1
  %15 = icmp eq i8 %14, 13
  br i1 %15, label %16, label %17

16:                                               ; preds = %11
  %.sroa.speculated.i3 = tail call i64 @llvm.umin.i64(i64 %.sroa.speculated.i, i64 %12)
  br label %17

17:                                               ; preds = %16, %11, %9
  %.sroa.08.0 = phi i64 [ 0, %9 ], [ %.sroa.speculated.i3, %16 ], [ %.sroa.speculated.i, %11 ]
  %18 = add nuw i64 %7, 1
  %.not19 = icmp ult i64 %7, %1
  br i1 %.not19, label %_ZNKSt17basic_string_viewIcSt11char_traitsIcEE6substrEmm.exit, label %19

19:                                               ; preds = %17
  tail call void (ptr, ...) @_ZSt24__throw_out_of_range_fmtPKcz(ptr noundef nonnull @.str.26, ptr noundef nonnull @.str.25, i64 noundef %18, i64 noundef %1) #26
  unreachable

_ZNKSt17basic_string_viewIcSt11char_traitsIcEE6substrEmm.exit: ; preds = %17
  %20 = sub i64 %1, %18
  %21 = getelementptr inbounds i8, ptr %2, i64 %18
  br label %_ZNKSt17basic_string_viewIcSt11char_traitsIcEE4findEcm.exit.thread

_ZNKSt17basic_string_viewIcSt11char_traitsIcEE4findEcm.exit.thread: ; preds = %_ZNKSt17basic_string_viewIcSt11char_traitsIcEE4findEcm.exit, %_ZNSt11char_traitsIcE4findEPKcmRS1_.exit.i, %3, %_ZNKSt17basic_string_viewIcSt11char_traitsIcEE6substrEmm.exit
  %.sroa.08.0.sink = phi i64 [ %.sroa.08.0, %_ZNKSt17basic_string_viewIcSt11char_traitsIcEE6substrEmm.exit ], [ %1, %3 ], [ %1, %_ZNSt11char_traitsIcE4findEPKcmRS1_.exit.i ], [ %1, %_ZNKSt17basic_string_viewIcSt11char_traitsIcEE4findEcm.exit ]
  %.sink20 = phi i64 [ %20, %_ZNKSt17basic_string_viewIcSt11char_traitsIcEE6substrEmm.exit ], [ 0, %3 ], [ 0, %_ZNSt11char_traitsIcE4findEPKcmRS1_.exit.i ], [ 0, %_ZNKSt17basic_string_viewIcSt11char_traitsIcEE4findEcm.exit ]
  %.sink = phi ptr [ %21, %_ZNKSt17basic_string_viewIcSt11char_traitsIcEE6substrEmm.exit ], [ @.str.5, %3 ], [ @.str.5, %_ZNSt11char_traitsIcE4findEPKcmRS1_.exit.i ], [ @.str.5, %_ZNKSt17basic_string_viewIcSt11char_traitsIcEE4findEcm.exit ]
  store i64 %.sroa.08.0.sink, ptr %0, align 8
  %.sroa.7.0..sroa_idx = getelementptr inbounds i8, ptr %0, i64 8
  store ptr %2, ptr %.sroa.7.0..sroa_idx, align 8
  %22 = getelementptr inbounds i8, ptr %0, i64 16
  store i64 %.sink20, ptr %22, align 8
  %.sroa.2.0..sroa_idx = getelementptr inbounds i8, ptr %0, i64 24
  store ptr %.sink, ptr %.sroa.2.0..sroa_idx, align 8
  ret void
}